target datalayout = "e-m:e-p270:32:32-p271:32:32-p272:64:64-i64:64-i128:128-f80:128-n8:16:32:64-S128"
target triple = "x86_64-pc-linux-gnu"

%"class.icu_77::UnicodeString" = type { %"class.icu_77::Replaceable", %"union.icu_77::UnicodeString::StackBufferOrFields" }
%"class.icu_77::Replaceable" = type { %"class.icu_77::UObject" }
%"class.icu_77::UObject" = type { ptr }
%"union.icu_77::UnicodeString::StackBufferOrFields" = type { %struct.anon.0, [32 x i8] }
%struct.anon.0 = type { i16, i32, i32, ptr }
%"class.icu_77::CollationDataBuilder" = type { %"class.icu_77::UObject", ptr, ptr, ptr, ptr, %"class.icu_77::UVector32", %"class.icu_77::UVector64", %"class.icu_77::UVector", %"class.icu_77::UnicodeSet", %"class.icu_77::UnicodeString", i32, [4 x i8], %"class.icu_77::UnicodeSet", i8, i8, i8, ptr, ptr }
%"class.icu_77::UVector32" = type { %"class.icu_77::UObject", i32, i32, i32, ptr }
%"class.icu_77::UVector64" = type { %"class.icu_77::UObject", i32, i32, i32, ptr }
%"class.icu_77::UVector" = type { %"class.icu_77::UObject", i32, i32, ptr, ptr, ptr }
%"class.icu_77::UnicodeSet" = type <{ %"class.icu_77::UnicodeFilter", ptr, i32, i32, i8, [7 x i8], ptr, ptr, i32, [4 x i8], ptr, i32, [4 x i8], ptr, ptr, [25 x i32], [4 x i8] }>
%"class.icu_77::UnicodeFilter" = type { %"class.icu_77::UnicodeFunctor", %"class.icu_77::UnicodeMatcher" }
%"class.icu_77::UnicodeFunctor" = type { %"class.icu_77::UObject" }
%"class.icu_77::UnicodeMatcher" = type { ptr }

; Function Attrs: inlinehint mustprogress uwtable
define linkonce_odr noundef signext i8 @_ZN6icu_779UVector3214ensureCapacityEiR10UErrorCode(ptr noundef nonnull align 8 dereferenceable(32) %0, i32 noundef %1, ptr noundef nonnull align 4 dereferenceable(4) %2) #7 comdat align 2 {
  %4 = alloca i8, align 1
  %5 = alloca ptr, align 8
  %6 = alloca i32, align 4
  %7 = alloca ptr, align 8
  store ptr %0, ptr %5, align 8, !tbaa !104
  store i32 %1, ptr %6, align 4, !tbaa !57
  store ptr %2, ptr %7, align 8, !tbaa !8
  %8 = load ptr, ptr %5, align 8
  %9 = load i32, ptr %6, align 4, !tbaa !57
  %10 = icmp sge i32 %9, 0
  br i1 %10, label %11, label %17

11:                                               ; preds = %3
  %12 = getelementptr inbounds nuw %"class.icu_77::UVector32", ptr %8, i32 0, i32 2
  %13 = load i32, ptr %12, align 4, !tbaa !228
  %14 = load i32, ptr %6, align 4, !tbaa !57
  %15 = icmp sge i32 %13, %14
  br i1 %15, label %16, label %17

16:                                               ; preds = %11
  store i8 1, ptr %4, align 1
  br label %21

17:                                               ; preds = %11, %3
  %18 = load i32, ptr %6, align 4, !tbaa !57
  %19 = load ptr, ptr %7, align 8, !tbaa !8
  %20 = call noundef signext i8 @_ZN6icu_779UVector3214expandCapacityEiR10UErrorCode(ptr noundef nonnull align 8 dereferenceable(32) %8, i32 noundef %18, ptr noundef nonnull align 4 dereferenceable(4) %19)
  store i8 %20, ptr %4, align 1
  br label %21

21:                                               ; preds = %17, %16
  %22 = load i8, ptr %4, align 1
  ret i8 %22
}

; Function Attrs: inlinehint mustprogress uwtable
define linkonce_odr void @_ZN6icu_779UVector3210addElementEiR10UErrorCode(ptr noundef nonnull align 8 dereferenceable(32) %0, i32 noundef %1, ptr noundef nonnull align 4 dereferenceable(4) %2) #7 comdat align 2 {
  %4 = alloca ptr, align 8
  %5 = alloca i32, align 4
  %6 = alloca ptr, align 8
  store ptr %0, ptr %4, align 8, !tbaa !104
  store i32 %1, ptr %5, align 4, !tbaa !57
  store ptr %2, ptr %6, align 8, !tbaa !8
  %7 = load ptr, ptr %4, align 8
  %8 = getelementptr inbounds nuw %"class.icu_77::UVector32", ptr %7, i32 0, i32 1
  %9 = load i32, ptr %8, align 8, !tbaa !139
  %10 = add nsw i32 %9, 1
  %11 = load ptr, ptr %6, align 8, !tbaa !8
  %12 = call noundef signext i8 @_ZN6icu_779UVector3214ensureCapacityEiR10UErrorCode(ptr noundef nonnull align 8 dereferenceable(32) %7, i32 noundef %10, ptr noundef nonnull align 4 dereferenceable(4) %11)
  %13 = icmp ne i8 %12, 0
  br i1 %13, label %14, label %25

14:                                               ; preds = %3
  %15 = load i32, ptr %5, align 4, !tbaa !57
  %16 = getelementptr inbounds nuw %"class.icu_77::UVector32", ptr %7, i32 0, i32 4
  %17 = load ptr, ptr %16, align 8, !tbaa !106
  %18 = getelementptr inbounds nuw %"class.icu_77::UVector32", ptr %7, i32 0, i32 1
  %19 = load i32, ptr %18, align 8, !tbaa !139
  %20 = sext i32 %19 to i64
  %21 = getelementptr inbounds i32, ptr %17, i64 %20
  store i32 %15, ptr %21, align 4, !tbaa !57
  %22 = getelementptr inbounds nuw %"class.icu_77::UVector32", ptr %7, i32 0, i32 1
  %23 = load i32, ptr %22, align 8, !tbaa !139
  %24 = add nsw i32 %23, 1
  store i32 %24, ptr %22, align 8, !tbaa !139
  br label %25

25:                                               ; preds = %14, %3
  ret void
}

; Function Attrs: inlinehint mustprogress nounwind uwtable
define linkonce_odr noundef i32 @_ZNK6icu_779UVector3210elementAtiEi(ptr noundef nonnull align 8 dereferenceable(32) %0, i32 noundef %1) #3 comdat align 2 {
  %3 = alloca ptr, align 8
  %4 = alloca i32, align 4
  store ptr %0, ptr %3, align 8, !tbaa !104
  store i32 %1, ptr %4, align 4, !tbaa !57
  %5 = load ptr, ptr %3, align 8
  %6 = load i32, ptr %4, align 4, !tbaa !57
  %7 = icmp sge i32 %6, 0
  br i1 %7, label %8, label %25

8:                                                ; preds = %2
  %9 = getelementptr inbounds nuw %"class.icu_77::UVector32", ptr %5, i32 0, i32 1
  %10 = load i32, ptr %9, align 8, !tbaa !139
  %11 = icmp sgt i32 %10, 0
  br i1 %11, label %12, label %25

12:                                               ; preds = %8
  %13 = getelementptr inbounds nuw %"class.icu_77::UVector32", ptr %5, i32 0, i32 1
  %14 = load i32, ptr %13, align 8, !tbaa !139
  %15 = load i32, ptr %4, align 4, !tbaa !57
  %16 = sub nsw i32 %14, %15
  %17 = icmp sgt i32 %16, 0
  br i1 %17, label %18, label %25

18:                                               ; preds = %12
  %19 = getelementptr inbounds nuw %"class.icu_77::UVector32", ptr %5, i32 0, i32 4
  %20 = load ptr, ptr %19, align 8, !tbaa !106
  %21 = load i32, ptr %4, align 4, !tbaa !57
  %22 = sext i32 %21 to i64
  %23 = getelementptr inbounds i32, ptr %20, i64 %22
  %24 = load i32, ptr %23, align 4, !tbaa !57
  br label %26

25:                                               ; preds = %12, %8, %2
  br label %26

26:                                               ; preds = %25, %18
  %27 = phi i32 [ %24, %18 ], [ 0, %25 ]
  ret i32 %27
}

; Function Attrs: inlinehint mustprogress nounwind uwtable
define linkonce_odr noundef i32 @_ZNK6icu_779UVector324sizeEv(ptr noundef nonnull align 8 dereferenceable(32) %0) #3 comdat align 2 {
  %2 = alloca ptr, align 8
  store ptr %0, ptr %2, align 8, !tbaa !104
  %3 = load ptr, ptr %2, align 8
  %4 = getelementptr inbounds nuw %"class.icu_77::UVector32", ptr %3, i32 0, i32 1
  %5 = load i32, ptr %4, align 8, !tbaa !139
  ret i32 %5
}

; Function Attrs: mustprogress uwtable
define noundef i32 @_ZN6icu_7720CollationDataBuilder7addCE32EjR10UErrorCode(ptr noundef nonnull align 8 dereferenceable(640) %0, i32 noundef %1, ptr noundef nonnull align 4 dereferenceable(4) %2) #4 align 2 {
  %4 = alloca i32, align 4
  %5 = alloca ptr, align 8
  %6 = alloca i32, align 4
  %7 = alloca ptr, align 8
  %8 = alloca i32, align 4
  %9 = alloca i32, align 4
  %10 = alloca i32, align 4
  store ptr %0, ptr %5, align 8, !tbaa !13
  store i32 %1, ptr %6, align 4, !tbaa !57
  store ptr %2, ptr %7, align 8, !tbaa !8
  %11 = load ptr, ptr %5, align 8
  call void @llvm.lifetime.start.p0(i64 4, ptr %8) #11
  %12 = getelementptr inbounds nuw %"class.icu_77::CollationDataBuilder", ptr %11, i32 0, i32 5
  %13 = call noundef i32 @_ZNK6icu_779UVector324sizeEv(ptr noundef nonnull align 8 dereferenceable(32) %12)
  store i32 %13, ptr %8, align 4, !tbaa !57
  call void @llvm.lifetime.start.p0(i64 4, ptr %9) #11
  store i32 0, ptr %9, align 4, !tbaa !57
  br label %14

14:                                               ; preds = %28, %3
  %15 = load i32, ptr %9, align 4, !tbaa !57
  %16 = load i32, ptr %8, align 4, !tbaa !57
  %17 = icmp slt i32 %15, %16
  br i1 %17, label %19, label %18

18:                                               ; preds = %14
  store i32 2, ptr %10, align 4
  br label %31

19:                                               ; preds = %14
  %20 = load i32, ptr %6, align 4, !tbaa !57
  %21 = getelementptr inbounds nuw %"class.icu_77::CollationDataBuilder", ptr %11, i32 0, i32 5
  %22 = load i32, ptr %9, align 4, !tbaa !57
  %23 = call noundef i32 @_ZNK6icu_779UVector3210elementAtiEi(ptr noundef nonnull align 8 dereferenceable(32) %21, i32 noundef %22)
  %24 = icmp eq i32 %20, %23
  br i1 %24, label %25, label %27

25:                                               ; preds = %19
  %26 = load i32, ptr %9, align 4, !tbaa !57
  store i32 %26, ptr %4, align 4
  store i32 1, ptr %10, align 4
  br label %31

27:                                               ; preds = %19
  br label %28

28:                                               ; preds = %27
  %29 = load i32, ptr %9, align 4, !tbaa !57
  %30 = add nsw i32 %29, 1
  store i32 %30, ptr %9, align 4, !tbaa !57
  br label %14, !llvm.loop !145

31:                                               ; preds = %25, %18
  call void @llvm.lifetime.end.p0(i64 4, ptr %9) #11
  %32 = load i32, ptr %10, align 4
  switch i32 %32, label %38 [
    i32 2, label %33
  ]

33:                                               ; preds = %31
  %34 = getelementptr inbounds nuw %"class.icu_77::CollationDataBuilder", ptr %11, i32 0, i32 5
  %35 = load i32, ptr %6, align 4, !tbaa !57
  %36 = load ptr, ptr %7, align 8, !tbaa !8
  call void @_ZN6icu_779UVector3210addElementEiR10UErrorCode(ptr noundef nonnull align 8 dereferenceable(32) %34, i32 noundef %35, ptr noundef nonnull align 4 dereferenceable(4) %36)
  %37 = load i32, ptr %8, align 4, !tbaa !57
  store i32 %37, ptr %4, align 4
  store i32 1, ptr %10, align 4
  br label %38

38:                                               ; preds = %33, %31
  call void @llvm.lifetime.end.p0(i64 4, ptr %8) #11
  %39 = load i32, ptr %4, align 4
  ret i32 %39
}