; Function Attrs: mustprogress uwtable
define noundef i32 @_ZN6icu_7720CollationDataBuilder7addCE32EjR10UErrorCode(ptr noundef nonnull align 8 dereferenceable(640) %0, i32 noundef %1, ptr noundef nonnull align 4 dereferenceable(4) %2) local_unnamed_addr #6 align 2 {
  %4 = getelementptr inbounds nuw i8, ptr %0, i64 40
  %5 = getelementptr inbounds nuw i8, ptr %0, i64 48
  %6 = load i32, ptr %5, align 8, !tbaa !120
  %.not14 = icmp sgt i32 %6, 0
  br i1 %.not14, label %_ZNK6icu_779UVector3210elementAtiEi.exit.lr.ph, label %.critedge

_ZNK6icu_779UVector3210elementAtiEi.exit.lr.ph:   ; preds = %3
  %7 = getelementptr inbounds nuw i8, ptr %0, i64 64
  %8 = load ptr, ptr %7, align 8, !tbaa !70
  %wide.trip.count = zext nneg i32 %6 to i64
  br label %_ZNK6icu_779UVector3210elementAtiEi.exit

_ZNK6icu_779UVector3210elementAtiEi.exit:         ; preds = %_ZNK6icu_779UVector3210elementAtiEi.exit.lr.ph, %12
  %indvars.iv = phi i64 [ 0, %_ZNK6icu_779UVector3210elementAtiEi.exit.lr.ph ], [ %indvars.iv.next, %12 ]
  %9 = getelementptr inbounds nuw i32, ptr %8, i64 %indvars.iv
  %10 = load i32, ptr %9, align 4, !tbaa !66
  %11 = icmp eq i32 %1, %10
  br i1 %11, label %_ZN6icu_779UVector3210addElementEiR10UErrorCode.exit.loopexit, label %12

12:                                               ; preds = %_ZNK6icu_779UVector3210elementAtiEi.exit
  %indvars.iv.next = add nuw nsw i64 %indvars.iv, 1
  %exitcond.not = icmp eq i64 %indvars.iv.next, %wide.trip.count
  br i1 %exitcond.not, label %.critedge, label %_ZNK6icu_779UVector3210elementAtiEi.exit, !llvm.loop !133

.critedge:                                        ; preds = %12, %3
  %13 = icmp slt i32 %6, -1
  %14 = getelementptr inbounds nuw i8, ptr %0, i64 52
  %15 = load i32, ptr %14, align 4
  %.not.i.i = icmp sle i32 %15, %6
  %or.cond.i.i = select i1 %13, i1 true, i1 %.not.i.i
  br i1 %or.cond.i.i, label %_ZN6icu_779UVector3214ensureCapacityEiR10UErrorCode.exit.i, label %_ZN6icu_779UVector3214ensureCapacityEiR10UErrorCode.exit.thread.i

_ZN6icu_779UVector3214ensureCapacityEiR10UErrorCode.exit.i: ; preds = %.critedge
  %16 = add nsw i32 %6, 1
  %17 = tail call noundef signext i8 @_ZN6icu_779UVector3214expandCapacityEiR10UErrorCode(ptr noundef nonnull align 8 dereferenceable(32) %4, i32 noundef %16, ptr noundef nonnull align 4 dereferenceable(4) %2)
  %.not.i = icmp eq i8 %17, 0
  br i1 %.not.i, label %_ZN6icu_779UVector3210addElementEiR10UErrorCode.exit, label %_ZN6icu_779UVector3214ensureCapacityEiR10UErrorCode.exit._ZN6icu_779UVector3214ensureCapacityEiR10UErrorCode.exit.thread_crit_edge.i

_ZN6icu_779UVector3214ensureCapacityEiR10UErrorCode.exit._ZN6icu_779UVector3214ensureCapacityEiR10UErrorCode.exit.thread_crit_edge.i: ; preds = %_ZN6icu_779UVector3214ensureCapacityEiR10UErrorCode.exit.i
  %.pre.i = load i32, ptr %5, align 8, !tbaa !120
  br label %_ZN6icu_779UVector3214ensureCapacityEiR10UErrorCode.exit.thread.i

_ZN6icu_779UVector3214ensureCapacityEiR10UErrorCode.exit.thread.i: ; preds = %_ZN6icu_779UVector3214ensureCapacityEiR10UErrorCode.exit._ZN6icu_779UVector3214ensureCapacityEiR10UErrorCode.exit.thread_crit_edge.i, %.critedge
  %18 = phi i32 [ %.pre.i, %_ZN6icu_779UVector3214ensureCapacityEiR10UErrorCode.exit._ZN6icu_779UVector3214ensureCapacityEiR10UErrorCode.exit.thread_crit_edge.i ], [ %6, %.critedge ]
  %19 = getelementptr inbounds nuw i8, ptr %0, i64 64
  %20 = load ptr, ptr %19, align 8, !tbaa !70
  %21 = sext i32 %18 to i64
  %22 = getelementptr inbounds i32, ptr %20, i64 %21
  store i32 %1, ptr %22, align 4, !tbaa !66
  %23 = load i32, ptr %5, align 8, !tbaa !120
  %24 = add nsw i32 %23, 1
  store i32 %24, ptr %5, align 8, !tbaa !120
  br label %_ZN6icu_779UVector3210addElementEiR10UErrorCode.exit

_ZN6icu_779UVector3210addElementEiR10UErrorCode.exit.loopexit: ; preds = %_ZNK6icu_779UVector3210elementAtiEi.exit
  %25 = trunc nuw nsw i64 %indvars.iv to i32
  br label %_ZN6icu_779UVector3210addElementEiR10UErrorCode.exit

_ZN6icu_779UVector3210addElementEiR10UErrorCode.exit: ; preds = %_ZN6icu_779UVector3210addElementEiR10UErrorCode.exit.loopexit, %_ZN6icu_779UVector3214ensureCapacityEiR10UErrorCode.exit.thread.i, %_ZN6icu_779UVector3214ensureCapacityEiR10UErrorCode.exit.i
  %.1 = phi i32 [ %6, %_ZN6icu_779UVector3214ensureCapacityEiR10UErrorCode.exit.i ], [ %6, %_ZN6icu_779UVector3214ensureCapacityEiR10UErrorCode.exit.thread.i ], [ %25, %_ZN6icu_779UVector3210addElementEiR10UErrorCode.exit.loopexit ]
  ret i32 %.1
}